target datalayout = "e-m:e-p270:32:32-p271:32:32-p272:64:64-i64:64-i128:128-f80:128-n8:16:32:64-S128"
target triple = "x86_64-pc-linux-gnu"

@Abc_TtCanonicizeWrap.pTruth2 = internal global [1024 x i64] zeroinitializer, align 16

; Function Attrs: inlinehint nounwind uwtable
define internal i32 @Abc_TtCountOnes(i64 noundef %0) #2 {
  %2 = alloca i64, align 8
  store i64 %0, ptr %2, align 8, !tbaa !10
  %3 = load i64, ptr %2, align 8, !tbaa !10
  %4 = load i64, ptr %2, align 8, !tbaa !10
  %5 = lshr i64 %4, 1
  %6 = and i64 %5, 6148914691236517205
  %7 = sub i64 %3, %6
  store i64 %7, ptr %2, align 8, !tbaa !10
  %8 = load i64, ptr %2, align 8, !tbaa !10
  %9 = and i64 %8, 3689348814741910323
  %10 = load i64, ptr %2, align 8, !tbaa !10
  %11 = lshr i64 %10, 2
  %12 = and i64 %11, 3689348814741910323
  %13 = add i64 %9, %12
  store i64 %13, ptr %2, align 8, !tbaa !10
  %14 = load i64, ptr %2, align 8, !tbaa !10
  %15 = load i64, ptr %2, align 8, !tbaa !10
  %16 = lshr i64 %15, 4
  %17 = add i64 %14, %16
  %18 = and i64 %17, 1085102592571150095
  store i64 %18, ptr %2, align 8, !tbaa !10
  %19 = load i64, ptr %2, align 8, !tbaa !10
  %20 = load i64, ptr %2, align 8, !tbaa !10
  %21 = lshr i64 %20, 8
  %22 = add i64 %19, %21
  store i64 %22, ptr %2, align 8, !tbaa !10
  %23 = load i64, ptr %2, align 8, !tbaa !10
  %24 = load i64, ptr %2, align 8, !tbaa !10
  %25 = lshr i64 %24, 16
  %26 = add i64 %23, %25
  store i64 %26, ptr %2, align 8, !tbaa !10
  %27 = load i64, ptr %2, align 8, !tbaa !10
  %28 = load i64, ptr %2, align 8, !tbaa !10
  %29 = lshr i64 %28, 32
  %30 = add i64 %27, %29
  store i64 %30, ptr %2, align 8, !tbaa !10
  %31 = load i64, ptr %2, align 8, !tbaa !10
  %32 = and i64 %31, 255
  %33 = trunc i64 %32 to i32
  ret i32 %33
}

; Function Attrs: inlinehint nounwind uwtable
define internal void @Abc_TtVerifySmallTruth(ptr noundef %0, i32 noundef %1) #2 {
  %3 = alloca ptr, align 8
  %4 = alloca i32, align 4
  store ptr %0, ptr %3, align 8, !tbaa !3
  store i32 %1, ptr %4, align 4, !tbaa !8
  ret void
}

; Function Attrs: inlinehint nounwind uwtable
define internal i32 @Abc_TtCompareRev(ptr noundef %0, ptr noundef %1, i32 noundef %2) #2 {
  %4 = alloca i32, align 4
  %5 = alloca ptr, align 8
  %6 = alloca ptr, align 8
  %7 = alloca i32, align 4
  %8 = alloca i32, align 4
  %9 = alloca i32, align 4
  store ptr %0, ptr %5, align 8, !tbaa !3
  store ptr %1, ptr %6, align 8, !tbaa !3
  store i32 %2, ptr %7, align 4, !tbaa !8
  call void @llvm.lifetime.start.p0(i64 4, ptr %8) #12
  %10 = load i32, ptr %7, align 4, !tbaa !8
  %11 = sub nsw i32 %10, 1
  store i32 %11, ptr %8, align 4, !tbaa !8
  br label %12

12:                                               ; preds = %41, %3
  %13 = load i32, ptr %8, align 4, !tbaa !8
  %14 = icmp sge i32 %13, 0
  br i1 %14, label %15, label %44

15:                                               ; preds = %12
  %16 = load ptr, ptr %5, align 8, !tbaa !3
  %17 = load i32, ptr %8, align 4, !tbaa !8
  %18 = sext i32 %17 to i64
  %19 = getelementptr inbounds i64, ptr %16, i64 %18
  %20 = load i64, ptr %19, align 8, !tbaa !10
  %21 = load ptr, ptr %6, align 8, !tbaa !3
  %22 = load i32, ptr %8, align 4, !tbaa !8
  %23 = sext i32 %22 to i64
  %24 = getelementptr inbounds i64, ptr %21, i64 %23
  %25 = load i64, ptr %24, align 8, !tbaa !10
  %26 = icmp ne i64 %20, %25
  br i1 %26, label %27, label %40

27:                                               ; preds = %15
  %28 = load ptr, ptr %5, align 8, !tbaa !3
  %29 = load i32, ptr %8, align 4, !tbaa !8
  %30 = sext i32 %29 to i64
  %31 = getelementptr inbounds i64, ptr %28, i64 %30
  %32 = load i64, ptr %31, align 8, !tbaa !10
  %33 = load ptr, ptr %6, align 8, !tbaa !3
  %34 = load i32, ptr %8, align 4, !tbaa !8
  %35 = sext i32 %34 to i64
  %36 = getelementptr inbounds i64, ptr %33, i64 %35
  %37 = load i64, ptr %36, align 8, !tbaa !10
  %38 = icmp ult i64 %32, %37
  %39 = select i1 %38, i32 -1, i32 1
  store i32 %39, ptr %4, align 4
  store i32 1, ptr %9, align 4
  br label %45

40:                                               ; preds = %15
  br label %41

41:                                               ; preds = %40
  %42 = load i32, ptr %8, align 4, !tbaa !8
  %43 = add nsw i32 %42, -1
  store i32 %43, ptr %8, align 4, !tbaa !8
  br label %12, !llvm.loop !41

44:                                               ; preds = %12
  store i32 0, ptr %4, align 4
  store i32 1, ptr %9, align 4
  br label %45

45:                                               ; preds = %44, %27
  call void @llvm.lifetime.end.p0(i64 4, ptr %8) #12
  %46 = load i32, ptr %4, align 4
  ret i32 %46
}

; Function Attrs: inlinehint nounwind uwtable
define internal void @Abc_TtCopy(ptr noundef %0, ptr noundef %1, i32 noundef %2, i32 noundef %3) #2 {
  %5 = alloca ptr, align 8
  %6 = alloca ptr, align 8
  %7 = alloca i32, align 4
  %8 = alloca i32, align 4
  %9 = alloca i32, align 4
  store ptr %0, ptr %5, align 8, !tbaa !3
  store ptr %1, ptr %6, align 8, !tbaa !3
  store i32 %2, ptr %7, align 4, !tbaa !8
  store i32 %3, ptr %8, align 4, !tbaa !8
  call void @llvm.lifetime.start.p0(i64 4, ptr %9) #12
  %10 = load i32, ptr %8, align 4, !tbaa !8
  %11 = icmp ne i32 %10, 0
  br i1 %11, label %12, label %32

12:                                               ; preds = %4
  store i32 0, ptr %9, align 4, !tbaa !8
  br label %13

13:                                               ; preds = %28, %12
  %14 = load i32, ptr %9, align 4, !tbaa !8
  %15 = load i32, ptr %7, align 4, !tbaa !8
  %16 = icmp slt i32 %14, %15
  br i1 %16, label %17, label %31

17:                                               ; preds = %13
  %18 = load ptr, ptr %6, align 8, !tbaa !3
  %19 = load i32, ptr %9, align 4, !tbaa !8
  %20 = sext i32 %19 to i64
  %21 = getelementptr inbounds i64, ptr %18, i64 %20
  %22 = load i64, ptr %21, align 8, !tbaa !10
  %23 = xor i64 %22, -1
  %24 = load ptr, ptr %5, align 8, !tbaa !3
  %25 = load i32, ptr %9, align 4, !tbaa !8
  %26 = sext i32 %25 to i64
  %27 = getelementptr inbounds i64, ptr %24, i64 %26
  store i64 %23, ptr %27, align 8, !tbaa !10
  br label %28

28:                                               ; preds = %17
  %29 = load i32, ptr %9, align 4, !tbaa !8
  %30 = add nsw i32 %29, 1
  store i32 %30, ptr %9, align 4, !tbaa !8
  br label %13, !llvm.loop !29

31:                                               ; preds = %13
  br label %51

32:                                               ; preds = %4
  store i32 0, ptr %9, align 4, !tbaa !8
  br label %33

33:                                               ; preds = %47, %32
  %34 = load i32, ptr %9, align 4, !tbaa !8
  %35 = load i32, ptr %7, align 4, !tbaa !8
  %36 = icmp slt i32 %34, %35
  br i1 %36, label %37, label %50

37:                                               ; preds = %33
  %38 = load ptr, ptr %6, align 8, !tbaa !3
  %39 = load i32, ptr %9, align 4, !tbaa !8
  %40 = sext i32 %39 to i64
  %41 = getelementptr inbounds i64, ptr %38, i64 %40
  %42 = load i64, ptr %41, align 8, !tbaa !10
  %43 = load ptr, ptr %5, align 8, !tbaa !3
  %44 = load i32, ptr %9, align 4, !tbaa !8
  %45 = sext i32 %44 to i64
  %46 = getelementptr inbounds i64, ptr %43, i64 %45
  store i64 %42, ptr %46, align 8, !tbaa !10
  br label %47

47:                                               ; preds = %37
  %48 = load i32, ptr %9, align 4, !tbaa !8
  %49 = add nsw i32 %48, 1
  store i32 %49, ptr %9, align 4, !tbaa !8
  br label %33, !llvm.loop !30

50:                                               ; preds = %33
  br label %51

51:                                               ; preds = %50, %31
  call void @llvm.lifetime.end.p0(i64 4, ptr %9) #12
  ret void
}

; Function Attrs: inlinehint nounwind uwtable
define internal i32 @Abc_TtCountOnesInTruth(ptr noundef %0, i32 noundef %1) #2 {
  %3 = alloca ptr, align 8
  %4 = alloca i32, align 4
  %5 = alloca i32, align 4
  %6 = alloca i32, align 4
  %7 = alloca i32, align 4
  store ptr %0, ptr %3, align 8, !tbaa !3
  store i32 %1, ptr %4, align 4, !tbaa !8
  call void @llvm.lifetime.start.p0(i64 4, ptr %5) #12
  %8 = load i32, ptr %4, align 4, !tbaa !8
  %9 = call i32 @Abc_TtWordNum(i32 noundef %8)
  store i32 %9, ptr %5, align 4, !tbaa !8
  call void @llvm.lifetime.start.p0(i64 4, ptr %6) #12
  call void @llvm.lifetime.start.p0(i64 4, ptr %7) #12
  store i32 0, ptr %7, align 4, !tbaa !8
  %10 = load ptr, ptr %3, align 8, !tbaa !3
  %11 = load i32, ptr %4, align 4, !tbaa !8
  call void @Abc_TtVerifySmallTruth(ptr noundef %10, i32 noundef %11)
  store i32 0, ptr %6, align 4, !tbaa !8
  br label %12

12:                                               ; preds = %33, %2
  %13 = load i32, ptr %6, align 4, !tbaa !8
  %14 = load i32, ptr %5, align 4, !tbaa !8
  %15 = icmp slt i32 %13, %14
  br i1 %15, label %16, label %36

16:                                               ; preds = %12
  %17 = load ptr, ptr %3, align 8, !tbaa !3
  %18 = load i32, ptr %6, align 4, !tbaa !8
  %19 = sext i32 %18 to i64
  %20 = getelementptr inbounds i64, ptr %17, i64 %19
  %21 = load i64, ptr %20, align 8, !tbaa !10
  %22 = icmp ne i64 %21, 0
  br i1 %22, label %23, label %32

23:                                               ; preds = %16
  %24 = load ptr, ptr %3, align 8, !tbaa !3
  %25 = load i32, ptr %6, align 4, !tbaa !8
  %26 = sext i32 %25 to i64
  %27 = getelementptr inbounds i64, ptr %24, i64 %26
  %28 = load i64, ptr %27, align 8, !tbaa !10
  %29 = call i32 @Abc_TtCountOnes(i64 noundef %28)
  %30 = load i32, ptr %7, align 4, !tbaa !8
  %31 = add nsw i32 %30, %29
  store i32 %31, ptr %7, align 4, !tbaa !8
  br label %32

32:                                               ; preds = %23, %16
  br label %33

33:                                               ; preds = %32
  %34 = load i32, ptr %6, align 4, !tbaa !8
  %35 = add nsw i32 %34, 1
  store i32 %35, ptr %6, align 4, !tbaa !8
  br label %12, !llvm.loop !21

36:                                               ; preds = %12
  %37 = load i32, ptr %7, align 4, !tbaa !8
  call void @llvm.lifetime.end.p0(i64 4, ptr %7) #12
  call void @llvm.lifetime.end.p0(i64 4, ptr %6) #12
  call void @llvm.lifetime.end.p0(i64 4, ptr %5) #12
  ret i32 %37
}

; Function Attrs: nounwind uwtable
define void @Abc_TtNormalizeSmallTruth(ptr noundef %0, i32 noundef %1) #0 {
  %3 = alloca ptr, align 8
  %4 = alloca i32, align 4
  %5 = alloca i32, align 4
  %6 = alloca i32, align 4
  %7 = alloca i64, align 8
  store ptr %0, ptr %3, align 8, !tbaa !3
  store i32 %1, ptr %4, align 4, !tbaa !8
  %8 = load i32, ptr %4, align 4, !tbaa !8
  %9 = icmp slt i32 %8, 6
  br i1 %9, label %10, label %38

10:                                               ; preds = %2
  call void @llvm.lifetime.start.p0(i64 4, ptr %5) #12
  call void @llvm.lifetime.start.p0(i64 4, ptr %6) #12
  %11 = load i32, ptr %4, align 4, !tbaa !8
  %12 = shl i32 1, %11
  store i32 %12, ptr %6, align 4, !tbaa !8
  call void @llvm.lifetime.start.p0(i64 8, ptr %7) #12
  %13 = load ptr, ptr %3, align 8, !tbaa !3
  %14 = load i64, ptr %13, align 8, !tbaa !10
  %15 = load i32, ptr %6, align 4, !tbaa !8
  %16 = zext i32 %15 to i64
  %17 = shl i64 1, %16
  %18 = sub i64 %17, 1
  %19 = and i64 %14, %18
  %20 = load ptr, ptr %3, align 8, !tbaa !3
  store i64 %19, ptr %20, align 8, !tbaa !10
  store i64 %19, ptr %7, align 8, !tbaa !10
  %21 = load i32, ptr %6, align 4, !tbaa !8
  store i32 %21, ptr %5, align 4, !tbaa !8
  br label %22

22:                                               ; preds = %33, %10
  %23 = load i32, ptr %5, align 4, !tbaa !8
  %24 = icmp slt i32 %23, 64
  br i1 %24, label %25, label %37

25:                                               ; preds = %22
  %26 = load i64, ptr %7, align 8, !tbaa !10
  %27 = load i32, ptr %5, align 4, !tbaa !8
  %28 = zext i32 %27 to i64
  %29 = shl i64 %26, %28
  %30 = load ptr, ptr %3, align 8, !tbaa !3
  %31 = load i64, ptr %30, align 8, !tbaa !10
  %32 = or i64 %31, %29
  store i64 %32, ptr %30, align 8, !tbaa !10
  br label %33

33:                                               ; preds = %25
  %34 = load i32, ptr %6, align 4, !tbaa !8
  %35 = load i32, ptr %5, align 4, !tbaa !8
  %36 = add nsw i32 %35, %34
  store i32 %36, ptr %5, align 4, !tbaa !8
  br label %22, !llvm.loop !12

37:                                               ; preds = %22
  call void @llvm.lifetime.end.p0(i64 8, ptr %7) #12
  call void @llvm.lifetime.end.p0(i64 4, ptr %6) #12
  call void @llvm.lifetime.end.p0(i64 4, ptr %5) #12
  br label %38

38:                                               ; preds = %37, %2
  ret void
}

; Function Attrs: inlinehint nounwind uwtable
define internal i32 @Abc_TtWordNum(i32 noundef %0) #2 {
  %2 = alloca i32, align 4
  store i32 %0, ptr %2, align 4, !tbaa !8
  %3 = load i32, ptr %2, align 4, !tbaa !8
  %4 = icmp sle i32 %3, 6
  br i1 %4, label %5, label %6

5:                                                ; preds = %1
  br label %10

6:                                                ; preds = %1
  %7 = load i32, ptr %2, align 4, !tbaa !8
  %8 = sub nsw i32 %7, 6
  %9 = shl i32 1, %8
  br label %10

10:                                               ; preds = %6, %5
  %11 = phi i32 [ 1, %5 ], [ %9, %6 ]
  ret i32 %11
}

; Function Attrs: nounwind uwtable
define i32 @Abc_TtCanonicizeWrap(ptr noundef %0, ptr noundef %1, ptr noundef %2, i32 noundef %3, ptr noundef %4, i32 noundef %5) #0 {
  %7 = alloca i32, align 4
  %8 = alloca ptr, align 8
  %9 = alloca ptr, align 8
  %10 = alloca ptr, align 8
  %11 = alloca i32, align 4
  %12 = alloca ptr, align 8
  %13 = alloca i32, align 4
  %14 = alloca i32, align 4
  %15 = alloca i32, align 4
  %16 = alloca i32, align 4
  %17 = alloca [16 x i8], align 16
  %18 = alloca i32, align 4
  store ptr %0, ptr %8, align 8, !tbaa !112
  store ptr %1, ptr %9, align 8, !tbaa !74
  store ptr %2, ptr %10, align 8, !tbaa !3
  store i32 %3, ptr %11, align 4, !tbaa !8
  store ptr %4, ptr %12, align 8, !tbaa !49
  store i32 %5, ptr %13, align 4, !tbaa !8
  call void @llvm.lifetime.start.p0(i64 4, ptr %14) #12
  %19 = load i32, ptr %11, align 4, !tbaa !8
  %20 = call i32 @Abc_TtWordNum(i32 noundef %19)
  store i32 %20, ptr %14, align 4, !tbaa !8
  call void @llvm.lifetime.start.p0(i64 4, ptr %15) #12
  call void @llvm.lifetime.start.p0(i64 4, ptr %16) #12
  call void @llvm.lifetime.start.p0(i64 16, ptr %17) #12
  %21 = load ptr, ptr %10, align 8, !tbaa !3
  %22 = load i32, ptr %11, align 4, !tbaa !8
  call void @Abc_TtNormalizeSmallTruth(ptr noundef %21, i32 noundef %22)
  %23 = load ptr, ptr %10, align 8, !tbaa !3
  %24 = load i32, ptr %11, align 4, !tbaa !8
  %25 = call i32 @Abc_TtCountOnesInTruth(ptr noundef %23, i32 noundef %24)
  %26 = load i32, ptr %14, align 4, !tbaa !8
  %27 = mul nsw i32 %26, 32
  %28 = icmp ne i32 %25, %27
  br i1 %28, label %29, label %37

29:                                               ; preds = %6
  %30 = load ptr, ptr %8, align 8, !tbaa !112
  %31 = load ptr, ptr %9, align 8, !tbaa !74
  %32 = load ptr, ptr %10, align 8, !tbaa !3
  %33 = load i32, ptr %11, align 4, !tbaa !8
  %34 = load ptr, ptr %12, align 8, !tbaa !49
  %35 = load i32, ptr %13, align 4, !tbaa !8
  %36 = call i32 %30(ptr noundef %31, ptr noundef %32, i32 noundef %33, ptr noundef %34, i32 noundef %35)
  store i32 %36, ptr %7, align 4
  store i32 1, ptr %18, align 4
  br label %67

37:                                               ; preds = %6
  %38 = load ptr, ptr %10, align 8, !tbaa !3
  %39 = load i32, ptr %14, align 4, !tbaa !8
  call void @Abc_TtCopy(ptr noundef @Abc_TtCanonicizeWrap.pTruth2, ptr noundef %38, i32 noundef %39, i32 noundef 1)
  %40 = load ptr, ptr %8, align 8, !tbaa !112
  %41 = load ptr, ptr %9, align 8, !tbaa !74
  %42 = load ptr, ptr %10, align 8, !tbaa !3
  %43 = load i32, ptr %11, align 4, !tbaa !8
  %44 = load ptr, ptr %12, align 8, !tbaa !49
  %45 = load i32, ptr %13, align 4, !tbaa !8
  %46 = call i32 %40(ptr noundef %41, ptr noundef %42, i32 noundef %43, ptr noundef %44, i32 noundef %45)
  store i32 %46, ptr %15, align 4, !tbaa !8
  %47 = load ptr, ptr %8, align 8, !tbaa !112
  %48 = load ptr, ptr %9, align 8, !tbaa !74
  %49 = load i32, ptr %11, align 4, !tbaa !8
  %50 = getelementptr inbounds [16 x i8], ptr %17, i64 0, i64 0
  %51 = load i32, ptr %13, align 4, !tbaa !8
  %52 = call i32 %47(ptr noundef %48, ptr noundef @Abc_TtCanonicizeWrap.pTruth2, i32 noundef %49, ptr noundef %50, i32 noundef %51)
  store i32 %52, ptr %16, align 4, !tbaa !8
  %53 = load ptr, ptr %10, align 8, !tbaa !3
  %54 = load i32, ptr %14, align 4, !tbaa !8
  %55 = call i32 @Abc_TtCompareRev(ptr noundef %53, ptr noundef @Abc_TtCanonicizeWrap.pTruth2, i32 noundef %54)
  %56 = icmp sle i32 %55, 0
  br i1 %56, label %57, label %59

57:                                               ; preds = %37
  %58 = load i32, ptr %15, align 4, !tbaa !8
  store i32 %58, ptr %7, align 4
  store i32 1, ptr %18, align 4
  br label %67

59:                                               ; preds = %37
  %60 = load ptr, ptr %10, align 8, !tbaa !3
  %61 = load i32, ptr %14, align 4, !tbaa !8
  call void @Abc_TtCopy(ptr noundef %60, ptr noundef @Abc_TtCanonicizeWrap.pTruth2, i32 noundef %61, i32 noundef 0)
  %62 = load ptr, ptr %12, align 8, !tbaa !49
  %63 = getelementptr inbounds [16 x i8], ptr %17, i64 0, i64 0
  %64 = load i32, ptr %11, align 4, !tbaa !8
  %65 = sext i32 %64 to i64
  call void @llvm.memcpy.p0.p0.i64(ptr align 1 %62, ptr align 16 %63, i64 %65, i1 false)
  %66 = load i32, ptr %16, align 4, !tbaa !8
  store i32 %66, ptr %7, align 4
  store i32 1, ptr %18, align 4
  br label %67

67:                                               ; preds = %59, %57, %29
  call void @llvm.lifetime.end.p0(i64 16, ptr %17) #12
  call void @llvm.lifetime.end.p0(i64 4, ptr %16) #12
  call void @llvm.lifetime.end.p0(i64 4, ptr %15) #12
  call void @llvm.lifetime.end.p0(i64 4, ptr %14) #12
  %68 = load i32, ptr %7, align 4
  ret i32 %68
}