; Function Attrs: nounwind uwtable
define i32 @Abc_TtCanonicizeWrap(ptr noundef readonly captures(none) %0, ptr noundef %1, ptr noundef %2, i32 noundef %3, ptr noundef %4, i32 noundef %5) local_unnamed_addr #11 {
  %7 = alloca [16 x i8], align 16
  %8 = icmp slt i32 %3, 7
  %9 = add nsw i32 %3, -6
  %10 = shl nuw i32 1, %9
  %11 = select i1 %8, i32 1, i32 %10
  call void @llvm.lifetime.start.p0(i64 16, ptr nonnull %7) #21
  %12 = icmp slt i32 %3, 6
  br i1 %12, label %13, label %Abc_TtNormalizeSmallTruth.exit

13:                                               ; preds = %6
  %14 = shl nuw nsw i32 1, %3
  %15 = load i64, ptr %2, align 8, !tbaa !3
  %16 = zext nneg i32 %14 to i64
  %notmask.i = shl nsw i64 -1, %16
  %17 = xor i64 %notmask.i, -1
  %18 = and i64 %15, %17
  store i64 %18, ptr %2, align 8, !tbaa !3
  %19 = icmp ult i32 %3, 6
  br i1 %19, label %.lr.ph.i, label %Abc_TtNormalizeSmallTruth.exit

.lr.ph.i:                                         ; preds = %13, %.lr.ph.i
  %indvars.iv.i = phi i64 [ %indvars.iv.next.i, %.lr.ph.i ], [ %16, %13 ]
  %20 = phi i64 [ %22, %.lr.ph.i ], [ %18, %13 ]
  %21 = shl i64 %18, %indvars.iv.i
  %22 = or i64 %20, %21
  %indvars.iv.next.i = add nuw nsw i64 %indvars.iv.i, %16
  %23 = icmp samesign ult i64 %indvars.iv.next.i, 64
  br i1 %23, label %.lr.ph.i, label %..loopexit_crit_edge.i, !llvm.loop !7

..loopexit_crit_edge.i:                           ; preds = %.lr.ph.i
  store i64 %22, ptr %2, align 8, !tbaa !3
  br label %Abc_TtNormalizeSmallTruth.exit

Abc_TtNormalizeSmallTruth.exit:                   ; preds = %6, %13, %..loopexit_crit_edge.i
  %24 = icmp sgt i32 %11, 0
  br i1 %24, label %.lr.ph.preheader.i, label %Abc_TtCountOnesInTruth.exit.thread

.lr.ph.preheader.i:                               ; preds = %Abc_TtNormalizeSmallTruth.exit
  %wide.trip.count.i = zext nneg i32 %11 to i64
  br label %.lr.ph.i32

.lr.ph.i32:                                       ; preds = %47, %.lr.ph.preheader.i
  %indvars.iv.i33 = phi i64 [ 0, %.lr.ph.preheader.i ], [ %indvars.iv.next.i34, %47 ]
  %.014.i = phi i32 [ 0, %.lr.ph.preheader.i ], [ %.1.i, %47 ]
  %25 = getelementptr inbounds nuw i64, ptr %2, i64 %indvars.iv.i33
  %26 = load i64, ptr %25, align 8, !tbaa !3
  %.not.i = icmp eq i64 %26, 0
  br i1 %.not.i, label %47, label %27

27:                                               ; preds = %.lr.ph.i32
  %28 = lshr i64 %26, 1
  %29 = and i64 %28, 6148914691236517205
  %30 = sub i64 %26, %29
  %31 = and i64 %30, 3689348814741910323
  %32 = lshr i64 %30, 2
  %33 = and i64 %32, 3689348814741910323
  %34 = add nuw nsw i64 %33, %31
  %35 = lshr i64 %34, 4
  %36 = add nuw nsw i64 %35, %34
  %37 = and i64 %36, 1085102592571150095
  %38 = lshr i64 %37, 8
  %39 = add nuw nsw i64 %38, %37
  %40 = lshr i64 %39, 16
  %41 = add nuw nsw i64 %40, %39
  %42 = lshr i64 %41, 32
  %43 = add nuw nsw i64 %42, %41
  %44 = trunc i64 %43 to i32
  %45 = and i32 %44, 255
  %46 = add nsw i32 %45, %.014.i
  br label %47

47:                                               ; preds = %27, %.lr.ph.i32
  %.1.i = phi i32 [ %46, %27 ], [ %.014.i, %.lr.ph.i32 ]
  %indvars.iv.next.i34 = add nuw nsw i64 %indvars.iv.i33, 1
  %exitcond.not.i = icmp eq i64 %indvars.iv.next.i34, %wide.trip.count.i
  br i1 %exitcond.not.i, label %Abc_TtCountOnesInTruth.exit, label %.lr.ph.i32, !llvm.loop !9

Abc_TtCountOnesInTruth.exit:                      ; preds = %47
  %48 = shl nsw i32 %11, 5
  %.not = icmp eq i32 %.1.i, %48
  br i1 %.not, label %.lr.ph.i37, label %Abc_TtCountOnesInTruth.exit.thread

Abc_TtCountOnesInTruth.exit.thread:               ; preds = %Abc_TtNormalizeSmallTruth.exit, %Abc_TtCountOnesInTruth.exit
  %49 = tail call i32 %0(ptr noundef %1, ptr noundef %2, i32 noundef %3, ptr noundef %4, i32 noundef %5) #21
  br label %Abc_TtCompareRev.exit.thread

.lr.ph.i37:                                       ; preds = %Abc_TtCountOnesInTruth.exit, %.lr.ph.i37
  %indvars.iv.i38 = phi i64 [ %indvars.iv.next.i39, %.lr.ph.i37 ], [ 0, %Abc_TtCountOnesInTruth.exit ]
  %50 = getelementptr inbounds nuw i64, ptr %2, i64 %indvars.iv.i38
  %51 = load i64, ptr %50, align 8, !tbaa !3
  %52 = xor i64 %51, -1
  %53 = getelementptr inbounds nuw i64, ptr @Abc_TtCanonicizeWrap.pTruth2, i64 %indvars.iv.i38
  store i64 %52, ptr %53, align 8, !tbaa !3
  %indvars.iv.next.i39 = add nuw nsw i64 %indvars.iv.i38, 1
  %exitcond.not.i40 = icmp eq i64 %indvars.iv.next.i39, %wide.trip.count.i
  br i1 %exitcond.not.i40, label %Abc_TtCopy.exit, label %.lr.ph.i37, !llvm.loop !110

Abc_TtCopy.exit:                                  ; preds = %.lr.ph.i37
  %54 = tail call i32 %0(ptr noundef %1, ptr noundef nonnull %2, i32 noundef %3, ptr noundef %4, i32 noundef %5) #21
  %55 = call i32 %0(ptr noundef %1, ptr noundef nonnull @Abc_TtCanonicizeWrap.pTruth2, i32 noundef %3, ptr noundef nonnull %7, i32 noundef %5) #21
  br label %56

56:                                               ; preds = %59, %Abc_TtCopy.exit
  %indvars.iv.i41 = phi i64 [ %60, %59 ], [ %wide.trip.count.i, %Abc_TtCopy.exit ]
  %57 = trunc nuw i64 %indvars.iv.i41 to i32
  %58 = icmp sgt i32 %57, 0
  br i1 %58, label %59, label %Abc_TtCompareRev.exit.thread

59:                                               ; preds = %56
  %60 = add nsw i64 %indvars.iv.i41, -1
  %61 = getelementptr inbounds nuw i64, ptr %2, i64 %60
  %62 = load i64, ptr %61, align 8, !tbaa !3
  %63 = getelementptr inbounds nuw i64, ptr @Abc_TtCanonicizeWrap.pTruth2, i64 %60
  %64 = load i64, ptr %63, align 8, !tbaa !3
  %.not.i42 = icmp eq i64 %62, %64
  br i1 %.not.i42, label %56, label %65, !llvm.loop !35

65:                                               ; preds = %59
  %66 = icmp ult i64 %62, %64
  br i1 %66, label %Abc_TtCompareRev.exit.thread, label %.lr.ph18.i

.lr.ph18.i:                                       ; preds = %65, %.lr.ph18.i
  %indvars.iv21.i = phi i64 [ %indvars.iv.next22.i, %.lr.ph18.i ], [ 0, %65 ]
  %67 = getelementptr inbounds nuw i64, ptr @Abc_TtCanonicizeWrap.pTruth2, i64 %indvars.iv21.i
  %68 = load i64, ptr %67, align 8, !tbaa !3
  %69 = getelementptr inbounds nuw i64, ptr %2, i64 %indvars.iv21.i
  store i64 %68, ptr %69, align 8, !tbaa !3
  %indvars.iv.next22.i = add nuw nsw i64 %indvars.iv21.i, 1
  %exitcond25.not.i = icmp eq i64 %indvars.iv.next22.i, %wide.trip.count.i
  br i1 %exitcond25.not.i, label %Abc_TtCopy.exit43, label %.lr.ph18.i, !llvm.loop !23

Abc_TtCopy.exit43:                                ; preds = %.lr.ph18.i
  %70 = sext i32 %3 to i64
  call void @llvm.memcpy.p0.p0.i64(ptr align 1 %4, ptr nonnull align 16 %7, i64 %70, i1 false)
  br label %Abc_TtCompareRev.exit.thread

Abc_TtCompareRev.exit.thread:                     ; preds = %56, %65, %Abc_TtCopy.exit43, %Abc_TtCountOnesInTruth.exit.thread
  %.0 = phi i32 [ %49, %Abc_TtCountOnesInTruth.exit.thread ], [ %55, %Abc_TtCopy.exit43 ], [ %54, %65 ], [ %54, %56 ]
  call void @llvm.lifetime.end.p0(i64 16, ptr nonnull %7) #21
  ret i32 %.0
}